; Function Attrs: mustprogress uwtable
define dso_local noundef float @_ZN34btDeformableBackwardEulerObjective11totalEnergyEf(ptr nocapture noundef nonnull readonly align 8 dereferenceable(504) %this, float noundef %dt) local_unnamed_addr #3 align 2 {
entry:
  %m_size.i = getelementptr inbounds i8, ptr %this, i64 20
  %0 = load i32, ptr %m_size.i, align 4
  %cmp4 = icmp sgt i32 %0, 0
  br i1 %cmp4, label %for.body.lr.ph, label %for.end

for.body.lr.ph:                                   ; preds = %entry
  %m_data.i = getelementptr inbounds i8, ptr %this, i64 32
  br label %for.body

for.body:                                         ; preds = %for.body.lr.ph, %for.body
  %indvars.iv = phi i64 [ 0, %for.body.lr.ph ], [ %indvars.iv.next, %for.body ]
  %e.05 = phi float [ 0.000000e+00, %for.body.lr.ph ], [ %conv5, %for.body ]
  %1 = load ptr, ptr %m_data.i, align 8
  %arrayidx.i = getelementptr inbounds ptr, ptr %1, i64 %indvars.iv
  %2 = load ptr, ptr %arrayidx.i, align 8
  %vtable = load ptr, ptr %2, align 8
  %vfn = getelementptr inbounds i8, ptr %vtable, i64 168
  %3 = load ptr, ptr %vfn, align 8
  %call4 = tail call noundef double %3(ptr noundef nonnull align 8 dereferenceable(48) %2, float noundef %dt)
  %conv = fpext float %e.05 to double
  %add = fadd double %call4, %conv
  %conv5 = fptrunc double %add to float
  %indvars.iv.next = add nuw nsw i64 %indvars.iv, 1
  %4 = load i32, ptr %m_size.i, align 4
  %5 = sext i32 %4 to i64
  %cmp = icmp slt i64 %indvars.iv.next, %5
  br i1 %cmp, label %for.body, label %for.end, !llvm.loop !45

for.end:                                          ; preds = %for.body, %entry
  %e.0.lcssa = phi float [ 0.000000e+00, %entry ], [ %conv5, %for.body ]
  ret float %e.0.lcssa
}